; Function Attrs: nounwind uwtable
define hidden zeroext i1 @SDL_SetPointerPropertyWithCleanup_REAL(i32 noundef %0, ptr noundef %1, ptr noundef %2, ptr noundef %3, ptr noundef %4) local_unnamed_addr #0 {
  %.not = icmp eq ptr %2, null
  br i1 %.not, label %6, label %10

6:                                                ; preds = %5
  %.not28 = icmp eq ptr %3, null
  br i1 %.not28, label %8, label %7

7:                                                ; preds = %6
  tail call void %3(ptr noundef %4, ptr noundef null) #6
  br label %8

8:                                                ; preds = %7, %6
  %9 = tail call fastcc zeroext i1 @SDL_PrivateSetProperty(i32 noundef %0, ptr noundef %1, ptr noundef null)
  br label %20

10:                                               ; preds = %5
  %11 = tail call noalias dereferenceable_or_null(40) ptr @SDL_calloc_REAL(i64 noundef 1, i64 noundef 40) #7
  %.not29 = icmp eq ptr %11, null
  br i1 %.not29, label %12, label %15

12:                                               ; preds = %10
  %.not30 = icmp eq ptr %3, null
  br i1 %.not30, label %14, label %13

13:                                               ; preds = %12
  tail call void %3(ptr noundef %4, ptr noundef nonnull %2) #6
  br label %14

14:                                               ; preds = %13, %12
  tail call void @SDL_free_REAL(ptr noundef null) #6
  tail call void @SDL_free_REAL(ptr noundef null) #6
  br label %20

15:                                               ; preds = %10
  store i32 1, ptr %11, align 8
  %16 = getelementptr inbounds nuw i8, ptr %11, i64 8
  store ptr %2, ptr %16, align 8
  %17 = getelementptr inbounds nuw i8, ptr %11, i64 24
  store ptr %3, ptr %17, align 8
  %18 = getelementptr inbounds nuw i8, ptr %11, i64 32
  store ptr %4, ptr %18, align 8
  %19 = tail call fastcc zeroext i1 @SDL_PrivateSetProperty(i32 noundef %0, ptr noundef %1, ptr noundef nonnull %11)
  br label %20

20:                                               ; preds = %15, %14, %8
  %.0 = phi i1 [ %19, %15 ], [ false, %14 ], [ %9, %8 ]
  ret i1 %.0
}